target datalayout = "e-m:e-p270:32:32-p271:32:32-p272:64:64-i64:64-i128:128-f80:128-n8:16:32:64-S128"
target triple = "x86_64-pc-linux-gnu"

%"class.std::__cxx11::basic_string" = type { %"struct.std::__cxx11::basic_string<char>::_Alloc_hider", i64, %union.anon }
%"struct.std::__cxx11::basic_string<char>::_Alloc_hider" = type { ptr }
%union.anon = type { i64, [8 x i8] }
%"class.i18n::phonenumbers::AsYouTypeFormatter" = type { %"class.boost::scoped_ptr", %"class.i18n::phonenumbers::RegExpCache", %"class.std::__cxx11::basic_string", %"class.i18n::phonenumbers::UnicodeString", %"class.std::__cxx11::basic_string", %"class.i18n::phonenumbers::UnicodeString", %"class.i18n::phonenumbers::UnicodeString", i8, i8, i8, i8, ptr, %"class.std::__cxx11::basic_string", %"class.i18n::phonenumbers::PhoneMetadata", ptr, ptr, i32, i32, i32, %"class.std::__cxx11::basic_string", i8, %"class.std::__cxx11::basic_string", %"class.std::__cxx11::basic_string", %"class.std::__cxx11::list" }
%"class.boost::scoped_ptr" = type { ptr }
%"class.i18n::phonenumbers::RegExpCache" = type { ptr, %"class.boost::mutex", %"class.boost::scoped_ptr.1" }
%"class.boost::mutex" = type { %union.pthread_mutex_t }
%union.pthread_mutex_t = type { %struct.__pthread_mutex_s }
%struct.__pthread_mutex_s = type { i32, i32, i32, i32, i32, i16, i16, %struct.__pthread_internal_list }
%struct.__pthread_internal_list = type { ptr, ptr }
%"class.boost::scoped_ptr.1" = type { ptr }
%"class.i18n::phonenumbers::UnicodeString" = type <{ %"class.i18n::phonenumbers::UnicodeText", %"class.i18n::phonenumbers::UnicodeText::const_iterator", i32, [4 x i8] }>
%"class.i18n::phonenumbers::UnicodeText" = type { %"class.i18n::phonenumbers::UnicodeText::Repr" }
%"class.i18n::phonenumbers::UnicodeText::Repr" = type <{ ptr, i32, i32, i8, i8, [6 x i8] }>
%"class.i18n::phonenumbers::UnicodeText::const_iterator" = type { ptr }
%"class.i18n::phonenumbers::PhoneMetadata" = type <{ %"class.google::protobuf::MessageLite", %"class.google::protobuf::internal::HasBits", %"class.google::protobuf::internal::CachedSize", %"class.google::protobuf::RepeatedPtrField", %"class.google::protobuf::RepeatedPtrField", %"struct.google::protobuf::internal::ArenaStringPtr", %"struct.google::protobuf::internal::ArenaStringPtr", %"struct.google::protobuf::internal::ArenaStringPtr", %"struct.google::protobuf::internal::ArenaStringPtr", %"struct.google::protobuf::internal::ArenaStringPtr", %"struct.google::protobuf::internal::ArenaStringPtr", %"struct.google::protobuf::internal::ArenaStringPtr", %"struct.google::protobuf::internal::ArenaStringPtr", ptr, ptr, ptr, ptr, ptr, ptr, ptr, ptr, ptr, ptr, ptr, ptr, ptr, ptr, ptr, ptr, ptr, i32, i8, i8, i8, i8 }>
%"class.google::protobuf::MessageLite" = type { ptr, %"class.google::protobuf::internal::InternalMetadata" }
%"class.google::protobuf::internal::InternalMetadata" = type { ptr }
%"class.google::protobuf::internal::HasBits" = type { [1 x i32] }
%"class.google::protobuf::internal::CachedSize" = type { %"struct.std::atomic" }
%"struct.std::atomic" = type { %"struct.std::__atomic_base" }
%"struct.std::__atomic_base" = type { i32 }
%"class.google::protobuf::RepeatedPtrField" = type { %"class.google::protobuf::internal::RepeatedPtrFieldBase" }
%"class.google::protobuf::internal::RepeatedPtrFieldBase" = type { ptr, i32, i32, ptr }
%"struct.google::protobuf::internal::ArenaStringPtr" = type { ptr }
%"class.std::__cxx11::list" = type { %"class.std::__cxx11::_List_base" }
%"class.std::__cxx11::_List_base" = type { %"struct.std::__cxx11::_List_base<const i18n::phonenumbers::NumberFormat *, std::allocator<const i18n::phonenumbers::NumberFormat *>>::_List_impl" }
%"struct.std::__cxx11::_List_base<const i18n::phonenumbers::NumberFormat *, std::allocator<const i18n::phonenumbers::NumberFormat *>>::_List_impl" = type { %"struct.std::__detail::_List_node_header" }
%"struct.std::__detail::_List_node_header" = type { %"struct.std::__detail::_List_node_base", i64 }
%"struct.std::__detail::_List_node_base" = type { ptr, ptr }

; Function Attrs: inlinehint mustprogress uwtable
define linkonce_odr dso_local void @_ZN4i18n12phonenumbers17UTF8ToUnicodeTextEPKcib(ptr dead_on_unwind noalias writable sret(%"class.i18n::phonenumbers::UnicodeText") align 8 %0, ptr noundef %1, i32 noundef %2, i1 noundef zeroext %3) #11 comdat personality ptr @__gxx_personality_v0 {
  %5 = alloca ptr, align 8
  %6 = alloca ptr, align 8
  %7 = alloca i32, align 4
  %8 = alloca i8, align 1
  %9 = alloca i1, align 1
  %10 = alloca ptr, align 8
  %11 = alloca i32, align 4
  store ptr %0, ptr %5, align 8
  store ptr %1, ptr %6, align 8, !tbaa !120
  store i32 %2, ptr %7, align 4, !tbaa !72
  %12 = zext i1 %3 to i8
  store i8 %12, ptr %8, align 1, !tbaa !92
  store i1 false, ptr %9, align 1
  call void @_ZN4i18n12phonenumbers11UnicodeTextC1Ev(ptr noundef nonnull align 8 dereferenceable(24) %0)
  %13 = load i8, ptr %8, align 1, !tbaa !92, !range !90, !noundef !91
  %14 = trunc i8 %13 to i1
  br i1 %14, label %15, label %24

15:                                               ; preds = %4
  %16 = load ptr, ptr %6, align 8, !tbaa !120
  %17 = load i32, ptr %7, align 4, !tbaa !72
  %18 = invoke noundef nonnull align 8 dereferenceable(24) ptr @_ZN4i18n12phonenumbers11UnicodeText8CopyUTF8EPKci(ptr noundef nonnull align 8 dereferenceable(24) %0, ptr noundef %16, i32 noundef %17)
          to label %19 unwind label %20

19:                                               ; preds = %15
  br label %29

20:                                               ; preds = %24, %15
  %21 = landingpad { ptr, i32 }
          cleanup
  %22 = extractvalue { ptr, i32 } %21, 0
  store ptr %22, ptr %10, align 8
  %23 = extractvalue { ptr, i32 } %21, 1
  store i32 %23, ptr %11, align 4
  call void @_ZN4i18n12phonenumbers11UnicodeTextD1Ev(ptr noundef nonnull align 8 dereferenceable(24) %0) #6
  br label %33

24:                                               ; preds = %4
  %25 = load ptr, ptr %6, align 8, !tbaa !120
  %26 = load i32, ptr %7, align 4, !tbaa !72
  %27 = invoke noundef nonnull align 8 dereferenceable(24) ptr @_ZN4i18n12phonenumbers11UnicodeText11PointToUTF8EPKci(ptr noundef nonnull align 8 dereferenceable(24) %0, ptr noundef %25, i32 noundef %26)
          to label %28 unwind label %20

28:                                               ; preds = %24
  br label %29

29:                                               ; preds = %28, %19
  store i1 true, ptr %9, align 1
  %30 = load i1, ptr %9, align 1
  br i1 %30, label %32, label %31

31:                                               ; preds = %29
  call void @_ZN4i18n12phonenumbers11UnicodeTextD1Ev(ptr noundef nonnull align 8 dereferenceable(24) %0) #6
  br label %32

32:                                               ; preds = %31, %29
  ret void

33:                                               ; preds = %20
  %34 = load ptr, ptr %10, align 8
  %35 = load i32, ptr %11, align 4
  %36 = insertvalue { ptr, i32 } poison, ptr %34, 0
  %37 = insertvalue { ptr, i32 } %36, i32 %35, 1
  resume { ptr, i32 } %37
}

; Function Attrs: inlinehint mustprogress uwtable
define linkonce_odr dso_local void @_ZN4i18n12phonenumbers17UTF8ToUnicodeTextEPKci(ptr dead_on_unwind noalias writable sret(%"class.i18n::phonenumbers::UnicodeText") align 8 %0, ptr noundef %1, i32 noundef %2) #11 comdat {
  %4 = alloca ptr, align 8
  %5 = alloca ptr, align 8
  %6 = alloca i32, align 4
  store ptr %0, ptr %4, align 8
  store ptr %1, ptr %5, align 8, !tbaa !120
  store i32 %2, ptr %6, align 4, !tbaa !72
  %7 = load ptr, ptr %5, align 8, !tbaa !120
  %8 = load i32, ptr %6, align 4, !tbaa !72
  call void @_ZN4i18n12phonenumbers17UTF8ToUnicodeTextEPKcib(ptr dead_on_unwind writable sret(%"class.i18n::phonenumbers::UnicodeText") align 8 %0, ptr noundef %7, i32 noundef %8, i1 noundef zeroext true)
  ret void
}

; Function Attrs: mustprogress nounwind uwtable
define available_externally noundef ptr @_ZNKSt7__cxx1112basic_stringIcSt11char_traitsIcESaIcEE7_M_dataEv(ptr noundef nonnull align 8 dereferenceable(32) %0) #2 align 2 {
  %2 = alloca ptr, align 8
  store ptr %0, ptr %2, align 8, !tbaa !4
  %3 = load ptr, ptr %2, align 8
  %4 = getelementptr inbounds nuw %"class.std::__cxx11::basic_string", ptr %3, i32 0, i32 0
  %5 = getelementptr inbounds nuw %"struct.std::__cxx11::basic_string<char>::_Alloc_hider", ptr %4, i32 0, i32 0
  %6 = load ptr, ptr %5, align 8, !tbaa !179
  ret ptr %6
}

; Function Attrs: inlinehint mustprogress nounwind uwtable
define linkonce_odr dso_local void @_ZN4i18n12phonenumbers13UnicodeStringD2Ev(ptr noundef nonnull align 8 dereferenceable(36) %0) unnamed_addr #10 comdat align 2 {
  %2 = alloca ptr, align 8
  store ptr %0, ptr %2, align 8, !tbaa !68
  %3 = load ptr, ptr %2, align 8
  %4 = getelementptr inbounds nuw %"class.i18n::phonenumbers::UnicodeString", ptr %3, i32 0, i32 0
  call void @_ZN4i18n12phonenumbers11UnicodeTextD1Ev(ptr noundef nonnull align 8 dereferenceable(24) %4) #6
  ret void
}

; Function Attrs: inlinehint mustprogress uwtable
define linkonce_odr dso_local noundef i32 @_ZNK4i18n12phonenumbers13UnicodeString6lengthEv(ptr noundef nonnull align 8 dereferenceable(36) %0) #11 comdat align 2 {
  %2 = alloca ptr, align 8
  store ptr %0, ptr %2, align 8, !tbaa !68
  %3 = load ptr, ptr %2, align 8
  %4 = getelementptr inbounds nuw %"class.i18n::phonenumbers::UnicodeString", ptr %3, i32 0, i32 0
  %5 = call noundef i32 @_ZNK4i18n12phonenumbers11UnicodeText4sizeEv(ptr noundef nonnull align 8 dereferenceable(24) %4)
  ret i32 %5
}

; Function Attrs: mustprogress uwtable
define linkonce_odr dso_local void @_ZN4i18n12phonenumbers13UnicodeStringC2EPKc(ptr noundef nonnull align 8 dereferenceable(36) %0, ptr noundef %1) unnamed_addr #7 comdat align 2 personality ptr @__gxx_personality_v0 {
  %3 = alloca ptr, align 8
  %4 = alloca ptr, align 8
  %5 = alloca ptr, align 8
  %6 = alloca i32, align 4
  store ptr %0, ptr %3, align 8, !tbaa !68
  store ptr %1, ptr %4, align 8, !tbaa !120
  %7 = load ptr, ptr %3, align 8
  %8 = getelementptr inbounds nuw %"class.i18n::phonenumbers::UnicodeString", ptr %7, i32 0, i32 0
  %9 = load ptr, ptr %4, align 8, !tbaa !120
  %10 = load ptr, ptr %4, align 8, !tbaa !120
  %11 = call i64 @strlen(ptr noundef %10) #24
  %12 = trunc i64 %11 to i32
  call void @_ZN4i18n12phonenumbers17UTF8ToUnicodeTextEPKci(ptr dead_on_unwind writable sret(%"class.i18n::phonenumbers::UnicodeText") align 8 %7, ptr noundef %9, i32 noundef %12)
  %13 = getelementptr inbounds nuw %"class.i18n::phonenumbers::UnicodeString", ptr %7, i32 0, i32 1
  invoke void @_ZN4i18n12phonenumbers11UnicodeText14const_iteratorC1Ev(ptr noundef nonnull align 8 dereferenceable(8) %13)
          to label %14 unwind label %16

14:                                               ; preds = %2
  %15 = getelementptr inbounds nuw %"class.i18n::phonenumbers::UnicodeString", ptr %7, i32 0, i32 2
  store i32 -1, ptr %15, align 8, !tbaa !70
  ret void

16:                                               ; preds = %2
  %17 = landingpad { ptr, i32 }
          cleanup
  %18 = extractvalue { ptr, i32 } %17, 0
  store ptr %18, ptr %5, align 8
  %19 = extractvalue { ptr, i32 } %17, 1
  store i32 %19, ptr %6, align 4
  call void @_ZN4i18n12phonenumbers11UnicodeTextD1Ev(ptr noundef nonnull align 8 dereferenceable(24) %8) #6
  br label %20

20:                                               ; preds = %16
  %21 = load ptr, ptr %5, align 8
  %22 = load i32, ptr %6, align 4
  %23 = insertvalue { ptr, i32 } poison, ptr %21, 0
  %24 = insertvalue { ptr, i32 } %23, i32 %22, 1
  resume { ptr, i32 } %24
}

; Function Attrs: mustprogress nounwind uwtable
define available_externally noundef ptr @_ZNKSt7__cxx1112basic_stringIcSt11char_traitsIcESaIcEE5c_strEv(ptr noundef nonnull align 8 dereferenceable(32) %0) #2 align 2 {
  %2 = alloca ptr, align 8
  store ptr %0, ptr %2, align 8, !tbaa !4
  %3 = load ptr, ptr %2, align 8
  %4 = call noundef ptr @_ZNKSt7__cxx1112basic_stringIcSt11char_traitsIcESaIcEE7_M_dataEv(ptr noundef nonnull align 8 dereferenceable(32) %3)
  ret ptr %4
}

; Function Attrs: mustprogress uwtable
define dso_local noundef i32 @_ZNK4i18n12phonenumbers18AsYouTypeFormatter21GetRememberedPositionEv(ptr noundef nonnull align 8 dereferenceable(736) %0) #7 align 2 personality ptr @__gxx_personality_v0 {
  %2 = alloca i32, align 4
  %3 = alloca ptr, align 8
  %4 = alloca %"class.i18n::phonenumbers::UnicodeString", align 8
  %5 = alloca ptr, align 8
  %6 = alloca i32, align 4
  %7 = alloca i32, align 4
  %8 = alloca i32, align 4
  %9 = alloca i32, align 4
  store ptr %0, ptr %3, align 8, !tbaa !9
  %10 = load ptr, ptr %3, align 8
  call void @llvm.lifetime.start.p0(i64 40, ptr %4) #6
  %11 = getelementptr inbounds nuw %"class.i18n::phonenumbers::AsYouTypeFormatter", ptr %10, i32 0, i32 2
  %12 = call noundef ptr @_ZNKSt7__cxx1112basic_stringIcSt11char_traitsIcESaIcEE5c_strEv(ptr noundef nonnull align 8 dereferenceable(32) %11) #6
  call void @_ZN4i18n12phonenumbers13UnicodeStringC2EPKc(ptr noundef nonnull align 8 dereferenceable(36) %4, ptr noundef %12)
  %13 = getelementptr inbounds nuw %"class.i18n::phonenumbers::AsYouTypeFormatter", ptr %10, i32 0, i32 7
  %14 = load i8, ptr %13, align 8, !tbaa !11, !range !90, !noundef !91
  %15 = trunc i8 %14 to i1
  br i1 %15, label %25, label %16

16:                                               ; preds = %1
  %17 = getelementptr inbounds nuw %"class.i18n::phonenumbers::AsYouTypeFormatter", ptr %10, i32 0, i32 17
  %18 = load i32, ptr %17, align 4, !tbaa !57
  %19 = invoke noundef i32 @_ZN4i18n12phonenumbers18AsYouTypeFormatter28ConvertUnicodeStringPositionERKNS0_13UnicodeStringEi(ptr noundef nonnull align 8 dereferenceable(36) %4, i32 noundef %18)
          to label %20 unwind label %21

20:                                               ; preds = %16
  store i32 %19, ptr %2, align 4
  store i32 1, ptr %7, align 4
  br label %61

21:                                               ; preds = %16
  %22 = landingpad { ptr, i32 }
          cleanup
  %23 = extractvalue { ptr, i32 } %22, 0
  store ptr %23, ptr %5, align 8
  %24 = extractvalue { ptr, i32 } %22, 1
  store i32 %24, ptr %6, align 4
  br label %63

25:                                               ; preds = %1
  call void @llvm.lifetime.start.p0(i64 4, ptr %8) #6
  store i32 0, ptr %8, align 4, !tbaa !72
  call void @llvm.lifetime.start.p0(i64 4, ptr %9) #6
  store i32 0, ptr %9, align 4, !tbaa !72
  br label %26

26:                                               ; preds = %54, %25
  %27 = load i32, ptr %8, align 4, !tbaa !72
  %28 = getelementptr inbounds nuw %"class.i18n::phonenumbers::AsYouTypeFormatter", ptr %10, i32 0, i32 18
  %29 = load i32, ptr %28, align 8, !tbaa !58
  %30 = icmp slt i32 %27, %29
  br i1 %30, label %31, label %36

31:                                               ; preds = %26
  %32 = load i32, ptr %9, align 4, !tbaa !72
  %33 = invoke noundef i32 @_ZNK4i18n12phonenumbers13UnicodeString6lengthEv(ptr noundef nonnull align 8 dereferenceable(36) %4)
          to label %34 unwind label %50

34:                                               ; preds = %31
  %35 = icmp slt i32 %32, %33
  br label %36

36:                                               ; preds = %34, %26
  %37 = phi i1 [ false, %26 ], [ %35, %34 ]
  br i1 %37, label %38, label %57

38:                                               ; preds = %36
  %39 = getelementptr inbounds nuw %"class.i18n::phonenumbers::AsYouTypeFormatter", ptr %10, i32 0, i32 6
  %40 = load i32, ptr %8, align 4, !tbaa !72
  %41 = invoke noundef i32 @_ZNK4i18n12phonenumbers13UnicodeStringixEi(ptr noundef nonnull align 8 dereferenceable(36) %39, i32 noundef %40)
          to label %42 unwind label %50

42:                                               ; preds = %38
  %43 = load i32, ptr %9, align 4, !tbaa !72
  %44 = invoke noundef i32 @_ZNK4i18n12phonenumbers13UnicodeStringixEi(ptr noundef nonnull align 8 dereferenceable(36) %4, i32 noundef %43)
          to label %45 unwind label %50

45:                                               ; preds = %42
  %46 = icmp eq i32 %41, %44
  br i1 %46, label %47, label %54

47:                                               ; preds = %45
  %48 = load i32, ptr %8, align 4, !tbaa !72
  %49 = add nsw i32 %48, 1
  store i32 %49, ptr %8, align 4, !tbaa !72
  br label %54

50:                                               ; preds = %57, %42, %38, %31
  %51 = landingpad { ptr, i32 }
          cleanup
  %52 = extractvalue { ptr, i32 } %51, 0
  store ptr %52, ptr %5, align 8
  %53 = extractvalue { ptr, i32 } %51, 1
  store i32 %53, ptr %6, align 4
  call void @llvm.lifetime.end.p0(i64 4, ptr %9) #6
  call void @llvm.lifetime.end.p0(i64 4, ptr %8) #6
  br label %63

54:                                               ; preds = %47, %45
  %55 = load i32, ptr %9, align 4, !tbaa !72
  %56 = add nsw i32 %55, 1
  store i32 %56, ptr %9, align 4, !tbaa !72
  br label %26, !llvm.loop !131

57:                                               ; preds = %36
  %58 = load i32, ptr %9, align 4, !tbaa !72
  %59 = invoke noundef i32 @_ZN4i18n12phonenumbers18AsYouTypeFormatter28ConvertUnicodeStringPositionERKNS0_13UnicodeStringEi(ptr noundef nonnull align 8 dereferenceable(36) %4, i32 noundef %58)
          to label %60 unwind label %50

60:                                               ; preds = %57
  store i32 %59, ptr %2, align 4
  store i32 1, ptr %7, align 4
  call void @llvm.lifetime.end.p0(i64 4, ptr %9) #6
  call void @llvm.lifetime.end.p0(i64 4, ptr %8) #6
  br label %61

61:                                               ; preds = %60, %20
  call void @_ZN4i18n12phonenumbers13UnicodeStringD2Ev(ptr noundef nonnull align 8 dereferenceable(36) %4) #6
  call void @llvm.lifetime.end.p0(i64 40, ptr %4) #6
  %62 = load i32, ptr %2, align 4
  ret i32 %62

63:                                               ; preds = %50, %21
  call void @_ZN4i18n12phonenumbers13UnicodeStringD2Ev(ptr noundef nonnull align 8 dereferenceable(36) %4) #6
  call void @llvm.lifetime.end.p0(i64 40, ptr %4) #6
  br label %64

64:                                               ; preds = %63
  %65 = load ptr, ptr %5, align 8
  %66 = load i32, ptr %6, align 4
  %67 = insertvalue { ptr, i32 } poison, ptr %65, 0
  %68 = insertvalue { ptr, i32 } %67, i32 %66, 1
  resume { ptr, i32 } %68
}