; Function Attrs: mustprogress uwtable
define dso_local noundef i32 @_ZNK4i18n12phonenumbers18AsYouTypeFormatter21GetRememberedPositionEv(ptr noundef nonnull align 8 dereferenceable(736) %0) local_unnamed_addr #4 align 2 personality ptr @__gxx_personality_v0 {
  %2 = alloca %"class.i18n::phonenumbers::UnicodeString", align 8
  call void @llvm.lifetime.start.p0(i64 40, ptr nonnull %2) #21
  %3 = getelementptr inbounds nuw i8, ptr %0, i64 64
  %4 = load ptr, ptr %3, align 8, !tbaa !58
  %5 = tail call i64 @strlen(ptr noundef nonnull dereferenceable(1) %4) #24
  %6 = trunc i64 %5 to i32
  call void @_ZN4i18n12phonenumbers11UnicodeTextC1Ev(ptr noundef nonnull align 8 dereferenceable(36) %2)
  %7 = invoke noundef nonnull align 8 dereferenceable(24) ptr @_ZN4i18n12phonenumbers11UnicodeText8CopyUTF8EPKci(ptr noundef nonnull align 8 dereferenceable(36) %2, ptr noundef nonnull %4, i32 noundef %6)
          to label %_ZN4i18n12phonenumbers17UTF8ToUnicodeTextEPKci.exit.i unwind label %8

common.resume:                                    ; preds = %42, %common.resume.i
  %common.resume.op = phi { ptr, i32 } [ %common.resume.op.i, %common.resume.i ], [ %.pn, %42 ]
  resume { ptr, i32 } %common.resume.op

common.resume.i:                                  ; preds = %11, %8
  %common.resume.op.i = phi { ptr, i32 } [ %9, %8 ], [ %12, %11 ]
  call void @_ZN4i18n12phonenumbers11UnicodeTextD1Ev(ptr noundef nonnull align 8 dereferenceable(36) %2) #21
  br label %common.resume

8:                                                ; preds = %1
  %9 = landingpad { ptr, i32 }
          cleanup
  br label %common.resume.i

_ZN4i18n12phonenumbers17UTF8ToUnicodeTextEPKci.exit.i: ; preds = %1
  %10 = getelementptr inbounds nuw i8, ptr %2, i64 24
  invoke void @_ZN4i18n12phonenumbers11UnicodeText14const_iteratorC1Ev(ptr noundef nonnull align 8 dereferenceable(8) %10)
          to label %_ZN4i18n12phonenumbers13UnicodeStringC2EPKc.exit unwind label %11

11:                                               ; preds = %_ZN4i18n12phonenumbers17UTF8ToUnicodeTextEPKci.exit.i
  %12 = landingpad { ptr, i32 }
          cleanup
  br label %common.resume.i

_ZN4i18n12phonenumbers13UnicodeStringC2EPKc.exit: ; preds = %_ZN4i18n12phonenumbers17UTF8ToUnicodeTextEPKci.exit.i
  %13 = getelementptr inbounds nuw i8, ptr %2, i64 32
  store i32 -1, ptr %13, align 8, !tbaa !19
  %14 = getelementptr inbounds nuw i8, ptr %0, i64 248
  %15 = load i8, ptr %14, align 8, !tbaa !26, !range !79, !noundef !80
  %16 = trunc nuw i8 %15 to i1
  br i1 %16, label %.preheader, label %21

.preheader:                                       ; preds = %_ZN4i18n12phonenumbers13UnicodeStringC2EPKc.exit
  %17 = getelementptr inbounds nuw i8, ptr %0, i64 600
  %18 = load i32, ptr %17, align 8, !tbaa !64
  %19 = icmp sgt i32 %18, 0
  br i1 %19, label %.lr.ph, label %.critedge

.lr.ph:                                           ; preds = %.preheader
  %20 = getelementptr inbounds nuw i8, ptr %0, i64 208
  br label %27

21:                                               ; preds = %_ZN4i18n12phonenumbers13UnicodeStringC2EPKc.exit
  %22 = getelementptr inbounds nuw i8, ptr %0, i64 596
  %23 = load i32, ptr %22, align 4, !tbaa !63
  %24 = invoke noundef i32 @_ZN4i18n12phonenumbers18AsYouTypeFormatter28ConvertUnicodeStringPositionERKNS0_13UnicodeStringEi(ptr noundef nonnull align 8 dereferenceable(36) %2, i32 noundef %23)
          to label %41 unwind label %25

25:                                               ; preds = %21
  %26 = landingpad { ptr, i32 }
          cleanup
  br label %42

27:                                               ; preds = %.lr.ph, %34
  %.017 = phi i32 [ 0, %.lr.ph ], [ %37, %34 ]
  %.01016 = phi i32 [ 0, %.lr.ph ], [ %spec.select, %34 ]
  %28 = invoke noundef i32 @_ZNK4i18n12phonenumbers11UnicodeText4sizeEv(ptr noundef nonnull align 8 dereferenceable(36) %2)
          to label %_ZNK4i18n12phonenumbers13UnicodeString6lengthEv.exit unwind label %.loopexit

_ZNK4i18n12phonenumbers13UnicodeString6lengthEv.exit: ; preds = %27
  %29 = icmp slt i32 %.017, %28
  br i1 %29, label %30, label %.critedge

30:                                               ; preds = %_ZNK4i18n12phonenumbers13UnicodeString6lengthEv.exit
  %31 = invoke noundef i32 @_ZNK4i18n12phonenumbers13UnicodeStringixEi(ptr noundef nonnull align 8 dereferenceable(36) %20, i32 noundef %.01016)
          to label %32 unwind label %.loopexit

32:                                               ; preds = %30
  %33 = invoke noundef i32 @_ZNK4i18n12phonenumbers13UnicodeStringixEi(ptr noundef nonnull align 8 dereferenceable(36) %2, i32 noundef %.017)
          to label %34 unwind label %.loopexit

34:                                               ; preds = %32
  %35 = icmp eq i32 %31, %33
  %36 = zext i1 %35 to i32
  %spec.select = add nuw nsw i32 %.01016, %36
  %37 = add nuw nsw i32 %.017, 1
  %38 = load i32, ptr %17, align 8, !tbaa !64
  %39 = icmp slt i32 %spec.select, %38
  br i1 %39, label %27, label %.critedge, !llvm.loop !104

.loopexit:                                        ; preds = %30, %32, %27
  %lpad.loopexit = landingpad { ptr, i32 }
          cleanup
  br label %42

.loopexit.split-lp:                               ; preds = %.critedge
  %lpad.loopexit.split-lp = landingpad { ptr, i32 }
          cleanup
  br label %42

.critedge:                                        ; preds = %_ZNK4i18n12phonenumbers13UnicodeString6lengthEv.exit, %34, %.preheader
  %.0.lcssa = phi i32 [ 0, %.preheader ], [ %37, %34 ], [ %.017, %_ZNK4i18n12phonenumbers13UnicodeString6lengthEv.exit ]
  %40 = invoke noundef i32 @_ZN4i18n12phonenumbers18AsYouTypeFormatter28ConvertUnicodeStringPositionERKNS0_13UnicodeStringEi(ptr noundef nonnull align 8 dereferenceable(36) %2, i32 noundef %.0.lcssa)
          to label %41 unwind label %.loopexit.split-lp

41:                                               ; preds = %.critedge, %21
  %.013 = phi i32 [ %24, %21 ], [ %40, %.critedge ]
  call void @_ZN4i18n12phonenumbers11UnicodeTextD1Ev(ptr noundef nonnull align 8 dereferenceable(36) %2) #21
  call void @llvm.lifetime.end.p0(i64 40, ptr nonnull %2) #21
  ret i32 %.013

42:                                               ; preds = %.loopexit, %.loopexit.split-lp, %25
  %.pn = phi { ptr, i32 } [ %26, %25 ], [ %lpad.loopexit, %.loopexit ], [ %lpad.loopexit.split-lp, %.loopexit.split-lp ]
  call void @_ZN4i18n12phonenumbers11UnicodeTextD1Ev(ptr noundef nonnull align 8 dereferenceable(36) %2) #21
  call void @llvm.lifetime.end.p0(i64 40, ptr nonnull %2) #21
  br label %common.resume
}